target datalayout = "e-m:e-p270:32:32-p271:32:32-p272:64:64-i64:64-i128:128-f80:128-n8:16:32:64-S128"
target triple = "x86_64-pc-linux-gnu"

%class.QString = type { %struct.QArrayDataPointer }
%struct.QArrayDataPointer = type { ptr, ptr, i64 }
%class.ProgressFrame = type { %class.QFrame, ptr, %struct.progdlg, %class.QString, %class.QString, i8, ptr, i32, ptr, ptr }
%class.QFrame = type { %class.QWidget }
%class.QWidget = type { %class.QObject, %class.QPaintDevice.base, ptr }
%class.QObject = type { ptr, %class.QScopedPointer }
%class.QScopedPointer = type { ptr }
%class.QPaintDevice.base = type <{ ptr, i16 }>
%struct.progdlg = type { ptr, ptr }
%class.Ui_ProgressFrame = type { ptr, ptr, ptr, ptr }
%class.QFlags.0 = type { i32 }

; Function Attrs: inlinehint mustprogress nounwind null_pointer_is_valid sspstrong uwtable
define linkonce_odr void @_ZN6QFlagsIN10QEventLoop17ProcessEventsFlagEEC2ES1_(ptr noundef align 4 dereferenceable_or_null(4) %0, i32 noundef %1) unnamed_addr #3 comdat align 2 {
  %3 = alloca ptr, align 8
  %4 = alloca i32, align 4
  store ptr %0, ptr %3, align 8
  store i32 %1, ptr %4, align 4
  %5 = load ptr, ptr %3, align 8
  %6 = getelementptr inbounds nuw %class.QFlags.0, ptr %5, i32 0, i32 0
  %7 = load i32, ptr %4, align 4
  store i32 %7, ptr %6, align 4
  ret void
}

; Function Attrs: mustprogress null_pointer_is_valid sspstrong uwtable
define void @_ZN13ProgressFrame8setValueEi(ptr noundef align 8 dereferenceable_or_null(152) %0, i32 noundef %1) #0 align 2 {
  %3 = alloca ptr, align 8
  %4 = alloca i32, align 4
  store ptr %0, ptr %3, align 8
  store i32 %1, ptr %4, align 4
  %5 = load ptr, ptr %3, align 8
  %6 = getelementptr inbounds nuw %class.ProgressFrame, ptr %5, i32 0, i32 1
  %7 = load ptr, ptr %6, align 8
  %8 = getelementptr inbounds nuw %class.Ui_ProgressFrame, ptr %7, i32 0, i32 2
  %9 = load ptr, ptr %8, align 8
  %10 = load i32, ptr %4, align 4
  call void @_ZN12QProgressBar8setValueEi(ptr noundef align 8 dereferenceable_or_null(40) %9, i32 noundef %10)
  %11 = load i32, ptr %4, align 4
  call void @_ZN13ProgressFrame12valueChangedEi(ptr noundef align 8 dereferenceable_or_null(152) %5, i32 noundef %11)
  ret void
}

; Function Attrs: mustprogress null_pointer_is_valid sspstrong uwtable
define void @update_progress_dlg(ptr noundef %0, float noundef %1, ptr noundef %2) #0 {
  %4 = alloca ptr, align 8
  %5 = alloca float, align 4
  %6 = alloca ptr, align 8
  %7 = alloca %class.QFlags.0, align 4
  store ptr %0, ptr %4, align 8
  store float %1, ptr %5, align 4
  store ptr %2, ptr %6, align 8
  %8 = load ptr, ptr %4, align 8
  %9 = icmp ne ptr %8, null
  br i1 %9, label %11, label %10

10:                                               ; preds = %3
  br label %20

11:                                               ; preds = %3
  %12 = load ptr, ptr %4, align 8
  %13 = getelementptr inbounds nuw %struct.progdlg, ptr %12, i32 0, i32 0
  %14 = load ptr, ptr %13, align 8
  %15 = load float, ptr %5, align 4
  %16 = fmul float %15, 1.000000e+02
  %17 = fptosi float %16 to i32
  call void @_ZN13ProgressFrame8setValueEi(ptr noundef align 8 dereferenceable_or_null(152) %14, i32 noundef %17)
  call void @_ZN6QFlagsIN10QEventLoop17ProcessEventsFlagEEC2ES1_(ptr noundef align 4 dereferenceable_or_null(4) %7, i32 noundef 0) #16
  %18 = getelementptr inbounds nuw %class.QFlags.0, ptr %7, i32 0, i32 0
  %19 = load i32, ptr %18, align 4
  call void @_ZN16QCoreApplication13processEventsE6QFlagsIN10QEventLoop17ProcessEventsFlagEE(i32 %19)
  br label %20

20:                                               ; preds = %11, %10
  ret void
}