; Function Attrs: mustprogress null_pointer_is_valid sspstrong uwtable
define void @update_progress_dlg(ptr noundef readonly captures(address_is_null) %0, float noundef %1, ptr noundef readnone captures(none) %2) local_unnamed_addr #0 {
  %.not = icmp eq ptr %0, null
  br i1 %.not, label %12, label %4

4:                                                ; preds = %3
  %5 = load ptr, ptr %0, align 8
  %6 = fmul float %1, 1.000000e+02
  %7 = fptosi float %6 to i32
  %8 = getelementptr inbounds nuw i8, ptr %5, i64 40
  %9 = load ptr, ptr %8, align 8
  %10 = getelementptr inbounds nuw i8, ptr %9, i64 16
  %11 = load ptr, ptr %10, align 8
  tail call void @_ZN12QProgressBar8setValueEi(ptr noundef align 8 dereferenceable_or_null(40) %11, i32 noundef %7)
  tail call void @_ZN13ProgressFrame12valueChangedEi(ptr noundef align 8 dereferenceable_or_null(152) %5, i32 noundef %7)
  tail call void @_ZN16QCoreApplication13processEventsE6QFlagsIN10QEventLoop17ProcessEventsFlagEE(i32 0)
  br label %12

12:                                               ; preds = %3, %4
  ret void
}